target datalayout = "e-m:e-p270:32:32-p271:32:32-p272:64:64-i64:64-i128:128-f80:128-n8:16:32:64-S128"
target triple = "x86_64-pc-linux-gnu"

%struct._exr_encode_pipeline = type { i64, ptr, i16, i16, i32, ptr, %struct.exr_chunk_info_t, ptr, ptr, i64, i64, ptr, i64, ptr, i64, i64, ptr, i64, i64, ptr, i64, ptr, i64, ptr, ptr, ptr, ptr, ptr, ptr, [5 x %struct.exr_coding_channel_info_t] }
%struct.exr_chunk_info_t = type { i32, i32, i32, i32, i32, i8, i8, i8, i8, i64, i64, i64, i64, i64 }
%struct.exr_coding_channel_info_t = type { ptr, i32, i32, i32, i32, i8, i8, i16, i16, i16, i32, i32, %union.anon }
%union.anon = type { ptr }

; Function Attrs: nounwind uwtable
define internal i32 @default_write_chunk(ptr noundef %0) #0 {
  %2 = alloca i32, align 4
  %3 = alloca ptr, align 8
  %4 = alloca i32, align 4
  %5 = alloca i32, align 4
  store ptr %0, ptr %3, align 8, !tbaa !11
  call void @llvm.lifetime.start.p0(i64 4, ptr %4) #7
  %6 = load ptr, ptr %3, align 8, !tbaa !11
  %7 = icmp ne ptr %6, null
  br i1 %7, label %9, label %8

8:                                                ; preds = %1
  store i32 3, ptr %2, align 4
  store i32 1, ptr %5, align 4
  br label %167

9:                                                ; preds = %1
  %10 = load ptr, ptr %3, align 8, !tbaa !11
  %11 = getelementptr inbounds nuw %struct._exr_encode_pipeline, ptr %10, i32 0, i32 6
  %12 = getelementptr inbounds nuw %struct.exr_chunk_info_t, ptr %11, i32 0, i32 7
  %13 = load i8, ptr %12, align 2, !tbaa !49
  %14 = zext i8 %13 to i32
  switch i32 %14, label %164 [
    i32 0, label %15
    i32 1, label %35
    i32 2, label %69
    i32 3, label %109
    i32 4, label %163
  ]

15:                                               ; preds = %9
  %16 = load ptr, ptr %3, align 8, !tbaa !11
  %17 = getelementptr inbounds nuw %struct._exr_encode_pipeline, ptr %16, i32 0, i32 5
  %18 = load ptr, ptr %17, align 8, !tbaa !41
  %19 = ptrtoint ptr %18 to i64
  %20 = inttoptr i64 %19 to ptr
  %21 = load ptr, ptr %3, align 8, !tbaa !11
  %22 = getelementptr inbounds nuw %struct._exr_encode_pipeline, ptr %21, i32 0, i32 4
  %23 = load i32, ptr %22, align 4, !tbaa !38
  %24 = load ptr, ptr %3, align 8, !tbaa !11
  %25 = getelementptr inbounds nuw %struct._exr_encode_pipeline, ptr %24, i32 0, i32 6
  %26 = getelementptr inbounds nuw %struct.exr_chunk_info_t, ptr %25, i32 0, i32 2
  %27 = load i32, ptr %26, align 8, !tbaa !50
  %28 = load ptr, ptr %3, align 8, !tbaa !11
  %29 = getelementptr inbounds nuw %struct._exr_encode_pipeline, ptr %28, i32 0, i32 16
  %30 = load ptr, ptr %29, align 8, !tbaa !51
  %31 = load ptr, ptr %3, align 8, !tbaa !11
  %32 = getelementptr inbounds nuw %struct._exr_encode_pipeline, ptr %31, i32 0, i32 17
  %33 = load i64, ptr %32, align 8, !tbaa !52
  %34 = call i32 @exr_write_scanline_chunk(ptr noundef %20, i32 noundef %23, i32 noundef %27, ptr noundef %30, i64 noundef %33)
  store i32 %34, ptr %4, align 4, !tbaa !8
  br label %165

35:                                               ; preds = %9
  %36 = load ptr, ptr %3, align 8, !tbaa !11
  %37 = getelementptr inbounds nuw %struct._exr_encode_pipeline, ptr %36, i32 0, i32 5
  %38 = load ptr, ptr %37, align 8, !tbaa !41
  %39 = ptrtoint ptr %38 to i64
  %40 = inttoptr i64 %39 to ptr
  %41 = load ptr, ptr %3, align 8, !tbaa !11
  %42 = getelementptr inbounds nuw %struct._exr_encode_pipeline, ptr %41, i32 0, i32 4
  %43 = load i32, ptr %42, align 4, !tbaa !38
  %44 = load ptr, ptr %3, align 8, !tbaa !11
  %45 = getelementptr inbounds nuw %struct._exr_encode_pipeline, ptr %44, i32 0, i32 6
  %46 = getelementptr inbounds nuw %struct.exr_chunk_info_t, ptr %45, i32 0, i32 1
  %47 = load i32, ptr %46, align 4, !tbaa !53
  %48 = load ptr, ptr %3, align 8, !tbaa !11
  %49 = getelementptr inbounds nuw %struct._exr_encode_pipeline, ptr %48, i32 0, i32 6
  %50 = getelementptr inbounds nuw %struct.exr_chunk_info_t, ptr %49, i32 0, i32 2
  %51 = load i32, ptr %50, align 8, !tbaa !50
  %52 = load ptr, ptr %3, align 8, !tbaa !11
  %53 = getelementptr inbounds nuw %struct._exr_encode_pipeline, ptr %52, i32 0, i32 6
  %54 = getelementptr inbounds nuw %struct.exr_chunk_info_t, ptr %53, i32 0, i32 5
  %55 = load i8, ptr %54, align 4, !tbaa !54
  %56 = zext i8 %55 to i32
  %57 = load ptr, ptr %3, align 8, !tbaa !11
  %58 = getelementptr inbounds nuw %struct._exr_encode_pipeline, ptr %57, i32 0, i32 6
  %59 = getelementptr inbounds nuw %struct.exr_chunk_info_t, ptr %58, i32 0, i32 6
  %60 = load i8, ptr %59, align 1, !tbaa !55
  %61 = zext i8 %60 to i32
  %62 = load ptr, ptr %3, align 8, !tbaa !11
  %63 = getelementptr inbounds nuw %struct._exr_encode_pipeline, ptr %62, i32 0, i32 16
  %64 = load ptr, ptr %63, align 8, !tbaa !51
  %65 = load ptr, ptr %3, align 8, !tbaa !11
  %66 = getelementptr inbounds nuw %struct._exr_encode_pipeline, ptr %65, i32 0, i32 17
  %67 = load i64, ptr %66, align 8, !tbaa !52
  %68 = call i32 @exr_write_tile_chunk(ptr noundef %40, i32 noundef %43, i32 noundef %47, i32 noundef %51, i32 noundef %56, i32 noundef %61, ptr noundef %64, i64 noundef %67)
  store i32 %68, ptr %4, align 4, !tbaa !8
  br label %165

69:                                               ; preds = %9
  %70 = load ptr, ptr %3, align 8, !tbaa !11
  %71 = getelementptr inbounds nuw %struct._exr_encode_pipeline, ptr %70, i32 0, i32 13
  %72 = load ptr, ptr %71, align 8, !tbaa !56
  %73 = icmp ne ptr %72, null
  br i1 %73, label %74, label %79

74:                                               ; preds = %69
  %75 = load ptr, ptr %3, align 8, !tbaa !11
  %76 = getelementptr inbounds nuw %struct._exr_encode_pipeline, ptr %75, i32 0, i32 14
  %77 = load i64, ptr %76, align 8, !tbaa !57
  %78 = icmp eq i64 %77, 0
  br i1 %78, label %79, label %80

79:                                               ; preds = %74, %69
  store i32 3, ptr %2, align 4
  store i32 1, ptr %5, align 4
  br label %167

80:                                               ; preds = %74
  %81 = load ptr, ptr %3, align 8, !tbaa !11
  %82 = getelementptr inbounds nuw %struct._exr_encode_pipeline, ptr %81, i32 0, i32 5
  %83 = load ptr, ptr %82, align 8, !tbaa !41
  %84 = ptrtoint ptr %83 to i64
  %85 = inttoptr i64 %84 to ptr
  %86 = load ptr, ptr %3, align 8, !tbaa !11
  %87 = getelementptr inbounds nuw %struct._exr_encode_pipeline, ptr %86, i32 0, i32 4
  %88 = load i32, ptr %87, align 4, !tbaa !38
  %89 = load ptr, ptr %3, align 8, !tbaa !11
  %90 = getelementptr inbounds nuw %struct._exr_encode_pipeline, ptr %89, i32 0, i32 6
  %91 = getelementptr inbounds nuw %struct.exr_chunk_info_t, ptr %90, i32 0, i32 2
  %92 = load i32, ptr %91, align 8, !tbaa !50
  %93 = load ptr, ptr %3, align 8, !tbaa !11
  %94 = getelementptr inbounds nuw %struct._exr_encode_pipeline, ptr %93, i32 0, i32 16
  %95 = load ptr, ptr %94, align 8, !tbaa !51
  %96 = load ptr, ptr %3, align 8, !tbaa !11
  %97 = getelementptr inbounds nuw %struct._exr_encode_pipeline, ptr %96, i32 0, i32 17
  %98 = load i64, ptr %97, align 8, !tbaa !52
  %99 = load ptr, ptr %3, align 8, !tbaa !11
  %100 = getelementptr inbounds nuw %struct._exr_encode_pipeline, ptr %99, i32 0, i32 9
  %101 = load i64, ptr %100, align 8, !tbaa !58
  %102 = load ptr, ptr %3, align 8, !tbaa !11
  %103 = getelementptr inbounds nuw %struct._exr_encode_pipeline, ptr %102, i32 0, i32 13
  %104 = load ptr, ptr %103, align 8, !tbaa !56
  %105 = load ptr, ptr %3, align 8, !tbaa !11
  %106 = getelementptr inbounds nuw %struct._exr_encode_pipeline, ptr %105, i32 0, i32 14
  %107 = load i64, ptr %106, align 8, !tbaa !57
  %108 = call i32 @exr_write_deep_scanline_chunk(ptr noundef %85, i32 noundef %88, i32 noundef %92, ptr noundef %95, i64 noundef %98, i64 noundef %101, ptr noundef %104, i64 noundef %107)
  store i32 %108, ptr %4, align 4, !tbaa !8
  br label %165

109:                                              ; preds = %9
  %110 = load ptr, ptr %3, align 8, !tbaa !11
  %111 = getelementptr inbounds nuw %struct._exr_encode_pipeline, ptr %110, i32 0, i32 13
  %112 = load ptr, ptr %111, align 8, !tbaa !56
  %113 = icmp ne ptr %112, null
  br i1 %113, label %114, label %119

114:                                              ; preds = %109
  %115 = load ptr, ptr %3, align 8, !tbaa !11
  %116 = getelementptr inbounds nuw %struct._exr_encode_pipeline, ptr %115, i32 0, i32 14
  %117 = load i64, ptr %116, align 8, !tbaa !57
  %118 = icmp eq i64 %117, 0
  br i1 %118, label %119, label %120

119:                                              ; preds = %114, %109
  store i32 3, ptr %2, align 4
  store i32 1, ptr %5, align 4
  br label %167

120:                                              ; preds = %114
  %121 = load ptr, ptr %3, align 8, !tbaa !11
  %122 = getelementptr inbounds nuw %struct._exr_encode_pipeline, ptr %121, i32 0, i32 5
  %123 = load ptr, ptr %122, align 8, !tbaa !41
  %124 = ptrtoint ptr %123 to i64
  %125 = inttoptr i64 %124 to ptr
  %126 = load ptr, ptr %3, align 8, !tbaa !11
  %127 = getelementptr inbounds nuw %struct._exr_encode_pipeline, ptr %126, i32 0, i32 4
  %128 = load i32, ptr %127, align 4, !tbaa !38
  %129 = load ptr, ptr %3, align 8, !tbaa !11
  %130 = getelementptr inbounds nuw %struct._exr_encode_pipeline, ptr %129, i32 0, i32 6
  %131 = getelementptr inbounds nuw %struct.exr_chunk_info_t, ptr %130, i32 0, i32 1
  %132 = load i32, ptr %131, align 4, !tbaa !53
  %133 = load ptr, ptr %3, align 8, !tbaa !11
  %134 = getelementptr inbounds nuw %struct._exr_encode_pipeline, ptr %133, i32 0, i32 6
  %135 = getelementptr inbounds nuw %struct.exr_chunk_info_t, ptr %134, i32 0, i32 2
  %136 = load i32, ptr %135, align 8, !tbaa !50
  %137 = load ptr, ptr %3, align 8, !tbaa !11
  %138 = getelementptr inbounds nuw %struct._exr_encode_pipeline, ptr %137, i32 0, i32 6
  %139 = getelementptr inbounds nuw %struct.exr_chunk_info_t, ptr %138, i32 0, i32 5
  %140 = load i8, ptr %139, align 4, !tbaa !54
  %141 = zext i8 %140 to i32
  %142 = load ptr, ptr %3, align 8, !tbaa !11
  %143 = getelementptr inbounds nuw %struct._exr_encode_pipeline, ptr %142, i32 0, i32 6
  %144 = getelementptr inbounds nuw %struct.exr_chunk_info_t, ptr %143, i32 0, i32 6
  %145 = load i8, ptr %144, align 1, !tbaa !55
  %146 = zext i8 %145 to i32
  %147 = load ptr, ptr %3, align 8, !tbaa !11
  %148 = getelementptr inbounds nuw %struct._exr_encode_pipeline, ptr %147, i32 0, i32 16
  %149 = load ptr, ptr %148, align 8, !tbaa !51
  %150 = load ptr, ptr %3, align 8, !tbaa !11
  %151 = getelementptr inbounds nuw %struct._exr_encode_pipeline, ptr %150, i32 0, i32 17
  %152 = load i64, ptr %151, align 8, !tbaa !52
  %153 = load ptr, ptr %3, align 8, !tbaa !11
  %154 = getelementptr inbounds nuw %struct._exr_encode_pipeline, ptr %153, i32 0, i32 9
  %155 = load i64, ptr %154, align 8, !tbaa !58
  %156 = load ptr, ptr %3, align 8, !tbaa !11
  %157 = getelementptr inbounds nuw %struct._exr_encode_pipeline, ptr %156, i32 0, i32 13
  %158 = load ptr, ptr %157, align 8, !tbaa !56
  %159 = load ptr, ptr %3, align 8, !tbaa !11
  %160 = getelementptr inbounds nuw %struct._exr_encode_pipeline, ptr %159, i32 0, i32 14
  %161 = load i64, ptr %160, align 8, !tbaa !57
  %162 = call i32 @exr_write_deep_tile_chunk(ptr noundef %125, i32 noundef %128, i32 noundef %132, i32 noundef %136, i32 noundef %141, i32 noundef %146, ptr noundef %149, i64 noundef %152, i64 noundef %155, ptr noundef %158, i64 noundef %161)
  store i32 %162, ptr %4, align 4, !tbaa !8
  br label %165

163:                                              ; preds = %9
  br label %164

164:                                              ; preds = %9, %163
  store i32 3, ptr %4, align 4, !tbaa !8
  br label %165

165:                                              ; preds = %164, %120, %80, %35, %15
  %166 = load i32, ptr %4, align 4, !tbaa !8
  store i32 %166, ptr %2, align 4
  store i32 1, ptr %5, align 4
  br label %167

167:                                              ; preds = %165, %119, %79, %8
  call void @llvm.lifetime.end.p0(i64 4, ptr %4) #7
  %168 = load i32, ptr %2, align 4
  ret i32 %168
}