; Function Attrs: nounwind uwtable
define internal i32 @default_write_chunk(ptr noundef readonly %0) #0 {
  %.not = icmp eq ptr %0, null
  br i1 %.not, label %87, label %2

2:                                                ; preds = %1
  %3 = getelementptr inbounds nuw i8, ptr %0, i64 54
  %4 = load i8, ptr %3, align 2, !tbaa !42
  switch i8 %4, label %87 [
    i8 0, label %5
    i8 1, label %17
    i8 2, label %37
    i8 3, label %58
  ]

5:                                                ; preds = %2
  %6 = getelementptr inbounds nuw i8, ptr %0, i64 24
  %7 = load ptr, ptr %6, align 8, !tbaa !31
  %8 = getelementptr inbounds nuw i8, ptr %0, i64 20
  %9 = load i32, ptr %8, align 4, !tbaa !27
  %10 = getelementptr inbounds nuw i8, ptr %0, i64 40
  %11 = load i32, ptr %10, align 8, !tbaa !43
  %12 = getelementptr inbounds nuw i8, ptr %0, i64 168
  %13 = load ptr, ptr %12, align 8, !tbaa !44
  %14 = getelementptr inbounds nuw i8, ptr %0, i64 176
  %15 = load i64, ptr %14, align 8, !tbaa !45
  %16 = tail call i32 @exr_write_scanline_chunk(ptr noundef %7, i32 noundef %9, i32 noundef %11, ptr noundef %13, i64 noundef %15) #5
  br label %87

17:                                               ; preds = %2
  %18 = getelementptr inbounds nuw i8, ptr %0, i64 24
  %19 = load ptr, ptr %18, align 8, !tbaa !31
  %20 = getelementptr inbounds nuw i8, ptr %0, i64 20
  %21 = load i32, ptr %20, align 4, !tbaa !27
  %22 = getelementptr inbounds nuw i8, ptr %0, i64 36
  %23 = load i32, ptr %22, align 4, !tbaa !46
  %24 = getelementptr inbounds nuw i8, ptr %0, i64 40
  %25 = load i32, ptr %24, align 8, !tbaa !43
  %26 = getelementptr inbounds nuw i8, ptr %0, i64 52
  %27 = load i8, ptr %26, align 4, !tbaa !47
  %28 = zext i8 %27 to i32
  %29 = getelementptr inbounds nuw i8, ptr %0, i64 53
  %30 = load i8, ptr %29, align 1, !tbaa !48
  %31 = zext i8 %30 to i32
  %32 = getelementptr inbounds nuw i8, ptr %0, i64 168
  %33 = load ptr, ptr %32, align 8, !tbaa !44
  %34 = getelementptr inbounds nuw i8, ptr %0, i64 176
  %35 = load i64, ptr %34, align 8, !tbaa !45
  %36 = tail call i32 @exr_write_tile_chunk(ptr noundef %19, i32 noundef %21, i32 noundef %23, i32 noundef %25, i32 noundef %28, i32 noundef %31, ptr noundef %33, i64 noundef %35) #5
  br label %87

37:                                               ; preds = %2
  %38 = getelementptr inbounds nuw i8, ptr %0, i64 144
  %39 = load ptr, ptr %38, align 8, !tbaa !49
  %.not46 = icmp eq ptr %39, null
  br i1 %.not46, label %87, label %40

40:                                               ; preds = %37
  %41 = getelementptr inbounds nuw i8, ptr %0, i64 152
  %42 = load i64, ptr %41, align 8, !tbaa !50
  %43 = icmp eq i64 %42, 0
  br i1 %43, label %87, label %44

44:                                               ; preds = %40
  %45 = getelementptr inbounds nuw i8, ptr %0, i64 24
  %46 = load ptr, ptr %45, align 8, !tbaa !31
  %47 = getelementptr inbounds nuw i8, ptr %0, i64 20
  %48 = load i32, ptr %47, align 4, !tbaa !27
  %49 = getelementptr inbounds nuw i8, ptr %0, i64 40
  %50 = load i32, ptr %49, align 8, !tbaa !43
  %51 = getelementptr inbounds nuw i8, ptr %0, i64 168
  %52 = load ptr, ptr %51, align 8, !tbaa !44
  %53 = getelementptr inbounds nuw i8, ptr %0, i64 176
  %54 = load i64, ptr %53, align 8, !tbaa !45
  %55 = getelementptr inbounds nuw i8, ptr %0, i64 112
  %56 = load i64, ptr %55, align 8, !tbaa !51
  %57 = tail call i32 @exr_write_deep_scanline_chunk(ptr noundef %46, i32 noundef %48, i32 noundef %50, ptr noundef %52, i64 noundef %54, i64 noundef %56, ptr noundef nonnull %39, i64 noundef %42) #5
  br label %87

58:                                               ; preds = %2
  %59 = getelementptr inbounds nuw i8, ptr %0, i64 144
  %60 = load ptr, ptr %59, align 8, !tbaa !49
  %.not45 = icmp eq ptr %60, null
  br i1 %.not45, label %87, label %61

61:                                               ; preds = %58
  %62 = getelementptr inbounds nuw i8, ptr %0, i64 152
  %63 = load i64, ptr %62, align 8, !tbaa !50
  %64 = icmp eq i64 %63, 0
  br i1 %64, label %87, label %65

65:                                               ; preds = %61
  %66 = getelementptr inbounds nuw i8, ptr %0, i64 24
  %67 = load ptr, ptr %66, align 8, !tbaa !31
  %68 = getelementptr inbounds nuw i8, ptr %0, i64 20
  %69 = load i32, ptr %68, align 4, !tbaa !27
  %70 = getelementptr inbounds nuw i8, ptr %0, i64 36
  %71 = load i32, ptr %70, align 4, !tbaa !46
  %72 = getelementptr inbounds nuw i8, ptr %0, i64 40
  %73 = load i32, ptr %72, align 8, !tbaa !43
  %74 = getelementptr inbounds nuw i8, ptr %0, i64 52
  %75 = load i8, ptr %74, align 4, !tbaa !47
  %76 = zext i8 %75 to i32
  %77 = getelementptr inbounds nuw i8, ptr %0, i64 53
  %78 = load i8, ptr %77, align 1, !tbaa !48
  %79 = zext i8 %78 to i32
  %80 = getelementptr inbounds nuw i8, ptr %0, i64 168
  %81 = load ptr, ptr %80, align 8, !tbaa !44
  %82 = getelementptr inbounds nuw i8, ptr %0, i64 176
  %83 = load i64, ptr %82, align 8, !tbaa !45
  %84 = getelementptr inbounds nuw i8, ptr %0, i64 112
  %85 = load i64, ptr %84, align 8, !tbaa !51
  %86 = tail call i32 @exr_write_deep_tile_chunk(ptr noundef %67, i32 noundef %69, i32 noundef %71, i32 noundef %73, i32 noundef %76, i32 noundef %79, ptr noundef %81, i64 noundef %83, i64 noundef %85, ptr noundef nonnull %60, i64 noundef %63) #5
  br label %87

87:                                               ; preds = %5, %17, %44, %65, %2, %58, %61, %37, %40, %1
  %.039 = phi i32 [ 3, %1 ], [ 3, %40 ], [ 3, %37 ], [ 3, %61 ], [ 3, %58 ], [ %86, %65 ], [ %57, %44 ], [ %36, %17 ], [ %16, %5 ], [ 3, %2 ]
  ret i32 %.039
}